target datalayout = "e-m:e-p270:32:32-p271:32:32-p272:64:64-i64:64-i128:128-f80:128-n8:16:32:64-S128"
target triple = "x86_64-pc-linux-gnu"

%struct.bignum_st = type { ptr, i32, i32, i32, i32 }

; Function Attrs: nounwind uwtable
define hidden i64 @BN_bn2bin(ptr noundef %0, ptr noundef %1) #0 {
  %3 = alloca ptr, align 8
  %4 = alloca ptr, align 8
  %5 = alloca i64, align 8
  %6 = alloca i64, align 8
  %7 = alloca i64, align 8
  store ptr %0, ptr %3, align 8, !tbaa !13
  store ptr %1, ptr %4, align 8, !tbaa !6
  call void @llvm.lifetime.start.p0(i64 8, ptr %5) #7
  call void @llvm.lifetime.start.p0(i64 8, ptr %6) #7
  call void @llvm.lifetime.start.p0(i64 8, ptr %7) #7
  %8 = load ptr, ptr %3, align 8, !tbaa !13
  %9 = call i32 @BN_num_bytes(ptr noundef %8)
  %10 = zext i32 %9 to i64
  store i64 %10, ptr %6, align 8, !tbaa !11
  store i64 %10, ptr %5, align 8, !tbaa !11
  br label %11

11:                                               ; preds = %15, %2
  %12 = load i64, ptr %6, align 8, !tbaa !11
  %13 = add i64 %12, -1
  store i64 %13, ptr %6, align 8, !tbaa !11
  %14 = icmp ne i64 %12, 0
  br i1 %14, label %15, label %34

15:                                               ; preds = %11
  %16 = load ptr, ptr %3, align 8, !tbaa !13
  %17 = getelementptr inbounds nuw %struct.bignum_st, ptr %16, i32 0, i32 0
  %18 = load ptr, ptr %17, align 8, !tbaa !22
  %19 = load i64, ptr %6, align 8, !tbaa !11
  %20 = udiv i64 %19, 8
  %21 = getelementptr inbounds nuw i64, ptr %18, i64 %20
  %22 = load i64, ptr %21, align 8, !tbaa !11
  store i64 %22, ptr %7, align 8, !tbaa !11
  %23 = load i64, ptr %7, align 8, !tbaa !11
  %24 = load i64, ptr %6, align 8, !tbaa !11
  %25 = urem i64 %24, 8
  %26 = mul i64 8, %25
  %27 = lshr i64 %23, %26
  %28 = trunc i64 %27 to i8
  %29 = zext i8 %28 to i32
  %30 = and i32 %29, 255
  %31 = trunc i32 %30 to i8
  %32 = load ptr, ptr %4, align 8, !tbaa !6
  %33 = getelementptr inbounds nuw i8, ptr %32, i32 1
  store ptr %33, ptr %4, align 8, !tbaa !6
  store i8 %31, ptr %32, align 1, !tbaa !21
  br label %11, !llvm.loop !25

34:                                               ; preds = %11
  %35 = load i64, ptr %5, align 8, !tbaa !11
  call void @llvm.lifetime.end.p0(i64 8, ptr %7) #7
  call void @llvm.lifetime.end.p0(i64 8, ptr %6) #7
  call void @llvm.lifetime.end.p0(i64 8, ptr %5) #7
  ret i64 %35
}

; Function Attrs: nounwind uwtable
define hidden i64 @BN_bn2mpi(ptr noundef %0, ptr noundef %1) #0 {
  %3 = alloca i64, align 8
  %4 = alloca ptr, align 8
  %5 = alloca ptr, align 8
  %6 = alloca i64, align 8
  %7 = alloca i64, align 8
  %8 = alloca i32, align 4
  %9 = alloca i64, align 8
  %10 = alloca i32, align 4
  store ptr %0, ptr %4, align 8, !tbaa !13
  store ptr %1, ptr %5, align 8, !tbaa !6
  call void @llvm.lifetime.start.p0(i64 8, ptr %6) #7
  %11 = load ptr, ptr %4, align 8, !tbaa !13
  %12 = call i32 @BN_num_bits(ptr noundef %11)
  %13 = zext i32 %12 to i64
  store i64 %13, ptr %6, align 8, !tbaa !11
  call void @llvm.lifetime.start.p0(i64 8, ptr %7) #7
  %14 = load i64, ptr %6, align 8, !tbaa !11
  %15 = add i64 %14, 7
  %16 = udiv i64 %15, 8
  store i64 %16, ptr %7, align 8, !tbaa !11
  call void @llvm.lifetime.start.p0(i64 4, ptr %8) #7
  store i32 0, ptr %8, align 4, !tbaa !19
  %17 = load i64, ptr %7, align 8, !tbaa !11
  %18 = icmp ne i64 %17, 0
  br i1 %18, label %19, label %24

19:                                               ; preds = %2
  %20 = load i64, ptr %6, align 8, !tbaa !11
  %21 = and i64 %20, 7
  %22 = icmp eq i64 %21, 0
  br i1 %22, label %23, label %24

23:                                               ; preds = %19
  store i32 1, ptr %8, align 4, !tbaa !19
  br label %24

24:                                               ; preds = %23, %19, %2
  call void @llvm.lifetime.start.p0(i64 8, ptr %9) #7
  %25 = load i64, ptr %7, align 8, !tbaa !11
  %26 = load i32, ptr %8, align 4, !tbaa !19
  %27 = sext i32 %26 to i64
  %28 = add i64 %25, %27
  store i64 %28, ptr %9, align 8, !tbaa !11
  %29 = load i64, ptr %9, align 8, !tbaa !11
  %30 = load i64, ptr %7, align 8, !tbaa !11
  %31 = icmp ult i64 %29, %30
  br i1 %31, label %42, label %32

32:                                               ; preds = %24
  %33 = load i64, ptr %9, align 8, !tbaa !11
  %34 = add i64 4, %33
  %35 = load i64, ptr %9, align 8, !tbaa !11
  %36 = icmp ult i64 %34, %35
  br i1 %36, label %42, label %37

37:                                               ; preds = %32
  %38 = load i64, ptr %9, align 8, !tbaa !11
  %39 = and i64 %38, 4294967295
  %40 = load i64, ptr %9, align 8, !tbaa !11
  %41 = icmp ne i64 %39, %40
  br i1 %41, label %42, label %48

42:                                               ; preds = %37, %32, %24
  %43 = load ptr, ptr %5, align 8, !tbaa !6
  %44 = icmp ne ptr %43, null
  br i1 %44, label %45, label %47

45:                                               ; preds = %42
  %46 = load ptr, ptr %5, align 8, !tbaa !6
  call void @llvm.memset.p0.i64(ptr align 1 %46, i8 0, i64 4, i1 false)
  br label %47

47:                                               ; preds = %45, %42
  store i64 4, ptr %3, align 8
  store i32 1, ptr %10, align 4
  br label %104

48:                                               ; preds = %37
  %49 = load ptr, ptr %5, align 8, !tbaa !6
  %50 = icmp eq ptr %49, null
  br i1 %50, label %51, label %54

51:                                               ; preds = %48
  %52 = load i64, ptr %9, align 8, !tbaa !11
  %53 = add i64 4, %52
  store i64 %53, ptr %3, align 8
  store i32 1, ptr %10, align 4
  br label %104

54:                                               ; preds = %48
  %55 = load i64, ptr %9, align 8, !tbaa !11
  %56 = lshr i64 %55, 24
  %57 = trunc i64 %56 to i8
  %58 = load ptr, ptr %5, align 8, !tbaa !6
  %59 = getelementptr inbounds i8, ptr %58, i64 0
  store i8 %57, ptr %59, align 1, !tbaa !21
  %60 = load i64, ptr %9, align 8, !tbaa !11
  %61 = lshr i64 %60, 16
  %62 = trunc i64 %61 to i8
  %63 = load ptr, ptr %5, align 8, !tbaa !6
  %64 = getelementptr inbounds i8, ptr %63, i64 1
  store i8 %62, ptr %64, align 1, !tbaa !21
  %65 = load i64, ptr %9, align 8, !tbaa !11
  %66 = lshr i64 %65, 8
  %67 = trunc i64 %66 to i8
  %68 = load ptr, ptr %5, align 8, !tbaa !6
  %69 = getelementptr inbounds i8, ptr %68, i64 2
  store i8 %67, ptr %69, align 1, !tbaa !21
  %70 = load i64, ptr %9, align 8, !tbaa !11
  %71 = trunc i64 %70 to i8
  %72 = load ptr, ptr %5, align 8, !tbaa !6
  %73 = getelementptr inbounds i8, ptr %72, i64 3
  store i8 %71, ptr %73, align 1, !tbaa !21
  %74 = load i32, ptr %8, align 4, !tbaa !19
  %75 = icmp ne i32 %74, 0
  br i1 %75, label %76, label %79

76:                                               ; preds = %54
  %77 = load ptr, ptr %5, align 8, !tbaa !6
  %78 = getelementptr inbounds i8, ptr %77, i64 4
  store i8 0, ptr %78, align 1, !tbaa !21
  br label %79

79:                                               ; preds = %76, %54
  %80 = load ptr, ptr %4, align 8, !tbaa !13
  %81 = load ptr, ptr %5, align 8, !tbaa !6
  %82 = getelementptr inbounds i8, ptr %81, i64 4
  %83 = load i32, ptr %8, align 4, !tbaa !19
  %84 = sext i32 %83 to i64
  %85 = getelementptr inbounds i8, ptr %82, i64 %84
  %86 = call i64 @BN_bn2bin(ptr noundef %80, ptr noundef %85)
  %87 = load ptr, ptr %4, align 8, !tbaa !13
  %88 = getelementptr inbounds nuw %struct.bignum_st, ptr %87, i32 0, i32 3
  %89 = load i32, ptr %88, align 8, !tbaa !20
  %90 = icmp ne i32 %89, 0
  br i1 %90, label %91, label %101

91:                                               ; preds = %79
  %92 = load i64, ptr %9, align 8, !tbaa !11
  %93 = icmp ugt i64 %92, 0
  br i1 %93, label %94, label %101

94:                                               ; preds = %91
  %95 = load ptr, ptr %5, align 8, !tbaa !6
  %96 = getelementptr inbounds i8, ptr %95, i64 4
  %97 = load i8, ptr %96, align 1, !tbaa !21
  %98 = zext i8 %97 to i32
  %99 = or i32 %98, 128
  %100 = trunc i32 %99 to i8
  store i8 %100, ptr %96, align 1, !tbaa !21
  br label %101

101:                                              ; preds = %94, %91, %79
  %102 = load i64, ptr %9, align 8, !tbaa !11
  %103 = add i64 %102, 4
  store i64 %103, ptr %3, align 8
  store i32 1, ptr %10, align 4
  br label %104

104:                                              ; preds = %101, %51, %47
  call void @llvm.lifetime.end.p0(i64 8, ptr %9) #7
  call void @llvm.lifetime.end.p0(i64 4, ptr %8) #7
  call void @llvm.lifetime.end.p0(i64 8, ptr %7) #7
  call void @llvm.lifetime.end.p0(i64 8, ptr %6) #7
  %105 = load i64, ptr %3, align 8
  ret i64 %105
}