; Function Attrs: nounwind uwtable
define hidden range(i64 4, 536870918) i64 @BN_bn2mpi(ptr noundef %0, ptr noundef captures(address_is_null) %1) local_unnamed_addr #0 {
  %3 = tail call i32 @BN_num_bits(ptr noundef %0) #9
  %4 = zext i32 %3 to i64
  %5 = add nuw nsw i64 %4, 7
  %6 = lshr i64 %5, 3
  %.not = icmp ne i32 %3, 0
  %7 = and i64 %4, 7
  %8 = icmp eq i64 %7, 0
  %or.cond40.not.not = and i1 %.not, %8
  %spec.select41 = zext i1 %or.cond40.not.not to i64
  %9 = add nuw nsw i64 %6, %spec.select41
  %10 = icmp eq ptr %1, null
  br i1 %10, label %46, label %11

11:                                               ; preds = %2
  %12 = lshr i64 %9, 24
  %13 = trunc nuw nsw i64 %12 to i8
  store i8 %13, ptr %1, align 1, !tbaa !14
  %14 = lshr i64 %9, 16
  %15 = trunc i64 %14 to i8
  %16 = getelementptr inbounds nuw i8, ptr %1, i64 1
  store i8 %15, ptr %16, align 1, !tbaa !14
  %17 = lshr i64 %9, 8
  %18 = trunc i64 %17 to i8
  %19 = getelementptr inbounds nuw i8, ptr %1, i64 2
  store i8 %18, ptr %19, align 1, !tbaa !14
  %20 = trunc i64 %9 to i8
  %21 = getelementptr inbounds nuw i8, ptr %1, i64 3
  store i8 %20, ptr %21, align 1, !tbaa !14
  br i1 %or.cond40.not.not, label %22, label %24

22:                                               ; preds = %11
  %23 = getelementptr inbounds nuw i8, ptr %1, i64 4
  store i8 0, ptr %23, align 1, !tbaa !14
  br label %24

24:                                               ; preds = %22, %11
  %25 = getelementptr inbounds nuw i8, ptr %1, i64 4
  %26 = tail call i32 @BN_num_bytes(ptr noundef %0) #9
  %.not8.i = icmp eq i32 %26, 0
  br i1 %.not8.i, label %BN_bn2bin.exit, label %.lr.ph.i.preheader

.lr.ph.i.preheader:                               ; preds = %24
  %27 = zext i32 %26 to i64
  %28 = getelementptr inbounds nuw i8, ptr %25, i64 %spec.select41
  br label %.lr.ph.i

.lr.ph.i:                                         ; preds = %.lr.ph.i.preheader, %.lr.ph.i
  %.010.i = phi ptr [ %38, %.lr.ph.i ], [ %28, %.lr.ph.i.preheader ]
  %.079.i = phi i64 [ %29, %.lr.ph.i ], [ %27, %.lr.ph.i.preheader ]
  %29 = add nsw i64 %.079.i, -1
  %30 = load ptr, ptr %0, align 8, !tbaa !15
  %31 = lshr i64 %29, 3
  %32 = getelementptr inbounds nuw i64, ptr %30, i64 %31
  %33 = load i64, ptr %32, align 8, !tbaa !16
  %34 = shl i64 %29, 3
  %35 = and i64 %34, 56
  %36 = lshr i64 %33, %35
  %37 = trunc i64 %36 to i8
  %38 = getelementptr inbounds nuw i8, ptr %.010.i, i64 1
  store i8 %37, ptr %.010.i, align 1, !tbaa !14
  %.not.i = icmp eq i64 %29, 0
  br i1 %.not.i, label %BN_bn2bin.exit, label %.lr.ph.i, !llvm.loop !20

BN_bn2bin.exit:                                   ; preds = %.lr.ph.i, %24
  %39 = getelementptr inbounds nuw i8, ptr %0, i64 16
  %40 = load i32, ptr %39, align 8, !tbaa !13
  %41 = icmp ne i32 %40, 0
  %42 = icmp ne i64 %9, 0
  %or.cond = select i1 %41, i1 %42, i1 false
  br i1 %or.cond, label %43, label %46

43:                                               ; preds = %BN_bn2bin.exit
  %44 = load i8, ptr %25, align 1, !tbaa !14
  %45 = or i8 %44, -128
  store i8 %45, ptr %25, align 1, !tbaa !14
  br label %46

46:                                               ; preds = %BN_bn2bin.exit, %43, %2
  %47 = add nuw nsw i64 %9, 4
  ret i64 %47
}